; Function Attrs: nounwind uwtable
define dso_local void @lua_pushstring(ptr noundef %0, ptr noundef %1) local_unnamed_addr #1 {
  %3 = icmp eq ptr %1, null
  br i1 %3, label %4, label %7

4:                                                ; preds = %2
  %5 = getelementptr inbounds nuw i8, ptr %0, i64 40
  %6 = load ptr, ptr %5, align 8, !tbaa !14
  store i64 -1, ptr %6, align 8, !tbaa !17
  br label %24

7:                                                ; preds = %2
  %8 = getelementptr inbounds nuw i8, ptr %0, i64 16
  %9 = load i64, ptr %8, align 8, !tbaa !21
  %10 = inttoptr i64 %9 to ptr
  %11 = getelementptr inbounds nuw i8, ptr %10, i64 16
  %12 = load i64, ptr %11, align 8, !tbaa !29
  %13 = getelementptr inbounds nuw i8, ptr %10, i64 24
  %14 = load i64, ptr %13, align 8, !tbaa !39
  %.not = icmp ult i64 %12, %14
  br i1 %.not, label %17, label %15, !prof !27

15:                                               ; preds = %7
  %16 = tail call i32 @lj_gc_step(ptr noundef nonnull %0) #13
  br label %17

17:                                               ; preds = %15, %7
  %18 = tail call i64 @strlen(ptr noundef nonnull dereferenceable(1) %1) #15
  %19 = tail call ptr @lj_str_new(ptr noundef nonnull %0, ptr noundef nonnull %1, i64 noundef %18) #13
  %20 = getelementptr inbounds nuw i8, ptr %0, i64 40
  %21 = load ptr, ptr %20, align 8, !tbaa !14
  %22 = ptrtoint ptr %19 to i64
  %23 = or i64 %22, -703687441776640
  store i64 %23, ptr %21, align 8, !tbaa !17
  br label %24

24:                                               ; preds = %17, %4
  %25 = getelementptr inbounds nuw i8, ptr %0, i64 40
  %26 = load ptr, ptr %25, align 8, !tbaa !14
  %27 = getelementptr inbounds nuw i8, ptr %26, i64 8
  store ptr %27, ptr %25, align 8, !tbaa !14
  %28 = getelementptr inbounds nuw i8, ptr %0, i64 48
  %29 = load i64, ptr %28, align 8, !tbaa !16
  %30 = inttoptr i64 %29 to ptr
  %.not14 = icmp ult ptr %27, %30
  br i1 %.not14, label %32, label %31

31:                                               ; preds = %24
  tail call void @lj_state_growstack1(ptr noundef nonnull %0) #13
  br label %32

32:                                               ; preds = %31, %24
  ret void
}